; Function Attrs: mustprogress nounwind uwtable
define hidden void @_ZN24IntelJccErratumAlignmentC2EP14MacroAssembleri(ptr nocapture noundef nonnull align 8 dereferenceable(16) %0, ptr noundef %1, i32 noundef %2) unnamed_addr #2 align 2 {
  store ptr %1, ptr %0, align 8
  %4 = getelementptr inbounds i8, ptr %0, i64 8
  %5 = getelementptr inbounds i8, ptr %1, i64 8
  %6 = load ptr, ptr %5, align 8
  %7 = getelementptr inbounds i8, ptr %6, i64 16
  %8 = load ptr, ptr %7, align 8
  %9 = ptrtoint ptr %8 to i64
  store i64 %9, ptr %4, align 8
  %10 = load i8, ptr @_ZN10VM_Version22_has_intel_jcc_erratumE, align 1
  %11 = trunc i8 %10 to i1
  br i1 %11, label %12, label %40

12:                                               ; preds = %3
  %13 = tail call align 8 ptr @llvm.threadlocal.address.p0(ptr align 8 @_ZN6Thread12_thr_currentE)
  %14 = load ptr, ptr %13, align 8
  %15 = getelementptr inbounds i8, ptr %14, i64 1808
  %16 = load ptr, ptr %15, align 8
  %17 = getelementptr inbounds i8, ptr %16, i64 128
  %18 = load ptr, ptr %17, align 8
  %19 = getelementptr inbounds i8, ptr %18, i64 2288
  %20 = load ptr, ptr %19, align 8
  %21 = getelementptr inbounds i8, ptr %20, i64 572
  %22 = load i8, ptr %21, align 4
  %23 = trunc i8 %22 to i1
  br i1 %23, label %24, label %25

24:                                               ; preds = %12
  tail call void @_ZN9Assembler3nopEj(ptr noundef nonnull align 8 dereferenceable(40) %1, i32 noundef %2) #6
  br label %40

25:                                               ; preds = %12
  %26 = sext i32 %2 to i64
  %27 = add i64 %9, %26
  %.unshifted.i = xor i64 %27, %9
  %28 = icmp ugt i64 %.unshifted.i, 31
  br i1 %28, label %29, label %40

29:                                               ; preds = %25
  %30 = add i64 %9, 31
  %31 = and i64 %30, 4294967264
  %32 = sub i64 %31, %9
  %33 = trunc i64 %32 to i32
  tail call void @_ZN9Assembler3nopEj(ptr noundef nonnull align 8 dereferenceable(40) %1, i32 noundef %33) #6
  %34 = load ptr, ptr %0, align 8
  %35 = getelementptr inbounds i8, ptr %34, i64 8
  %36 = load ptr, ptr %35, align 8
  %37 = getelementptr inbounds i8, ptr %36, i64 16
  %38 = load ptr, ptr %37, align 8
  %39 = ptrtoint ptr %38 to i64
  store i64 %39, ptr %4, align 8
  br label %40

40:                                               ; preds = %25, %29, %3, %24
  ret void
}